; ModuleID = '17/1218.c'
source_filename = "17/1218.c"
target datalayout = "e-m:e-p270:32:32-p271:32:32-p272:64:64-i64:64-f80:128-n8:16:32:64-S128"
target triple = "x86_64-pc-linux-gnu"

@.str = private unnamed_addr constant [3 x i8] c"%s\00", align 1
@.str.1 = private unnamed_addr constant [2 x i8] c"\0A\00", align 1
@.str.2 = private unnamed_addr constant [3 x i8] c"%c\00", align 1
@.str.3 = private unnamed_addr constant [2 x i8] c" \00", align 1

; Function Attrs: noinline nounwind uwtable
define dso_local i32 @main() #0 {
  %1 = alloca i32, align 4
  %2 = alloca i32, align 4
  %3 = alloca i32, align 4
  %4 = alloca i32, align 4
  %5 = alloca i32, align 4
  %6 = alloca [101 x i8], align 16
  %7 = alloca [101 x i8], align 16
  %8 = alloca [101 x i8], align 16
  store i32 0, i32* %1, align 4
  store i32 0, i32* %2, align 4
  store i32 0, i32* %3, align 4
  store i32 0, i32* %4, align 4
  store i32 0, i32* %4, align 4
  br label %9

9:                                                ; preds = %168, %0
  %10 = load i32, i32* %4, align 4
  %11 = icmp eq i32 %10, 0
  br i1 %11, label %12, label %169

12:                                               ; preds = %9
  %13 = getelementptr inbounds [101 x i8], [101 x i8]* %6, i64 0, i64 0
  %14 = call i32 (i8*, ...) @__isoc99_scanf(i8* getelementptr inbounds ([3 x i8], [3 x i8]* @.str, i64 0, i64 0), i8* %13)
  %15 = getelementptr inbounds [101 x i8], [101 x i8]* %8, i64 0, i64 0
  %16 = getelementptr inbounds [101 x i8], [101 x i8]* %6, i64 0, i64 0
  %17 = call i32 @strcmp(i8* %15, i8* %16) #4
  %18 = icmp eq i32 %17, 0
  br i1 %18, label %19, label %26

19:                                               ; preds = %12
  %20 = getelementptr inbounds [101 x i8], [101 x i8]* %8, i64 0, i64 0
  %21 = call i64 @strlen(i8* %20) #4
  %22 = getelementptr inbounds [101 x i8], [101 x i8]* %6, i64 0, i64 0
  %23 = call i64 @strlen(i8* %22) #4
  %24 = icmp eq i64 %21, %23
  br i1 %24, label %25, label %26

25:                                               ; preds = %19
  br label %169

26:                                               ; preds = %19, %12
  store i32 0, i32* %5, align 4
  br label %27

27:                                               ; preds = %73, %26
  %28 = load i32, i32* %5, align 4
  %29 = sext i32 %28 to i64
  %30 = getelementptr inbounds [101 x i8], [101 x i8]* %6, i64 0, i64 %29
  %31 = load i8, i8* %30, align 1
  %32 = sext i8 %31 to i32
  %33 = icmp ne i32 %32, 0
  br i1 %33, label %34, label %76

34:                                               ; preds = %27
  %35 = load i32, i32* %5, align 4
  %36 = sext i32 %35 to i64
  %37 = getelementptr inbounds [101 x i8], [101 x i8]* %6, i64 0, i64 %36
  %38 = load i8, i8* %37, align 1
  %39 = sext i8 %38 to i32
  %40 = icmp eq i32 %39, 40
  br i1 %40, label %41, label %44

41:                                               ; preds = %34
  %42 = load i32, i32* %2, align 4
  %43 = add nsw i32 %42, 1
  store i32 %43, i32* %2, align 4
  br label %44

44:                                               ; preds = %41, %34
  %45 = load i32, i32* %5, align 4
  %46 = sext i32 %45 to i64
  %47 = getelementptr inbounds [101 x i8], [101 x i8]* %6, i64 0, i64 %46
  %48 = load i8, i8* %47, align 1
  %49 = sext i8 %48 to i32
  %50 = icmp eq i32 %49, 41
  br i1 %50, label %51, label %57

51:                                               ; preds = %44
  %52 = load i32, i32* %2, align 4
  %53 = icmp sgt i32 %52, 0
  br i1 %53, label %54, label %57

54:                                               ; preds = %51
  %55 = load i32, i32* %2, align 4
  %56 = add nsw i32 %55, -1
  store i32 %56, i32* %2, align 4
  br label %72

57:                                               ; preds = %51, %44
  %58 = load i32, i32* %5, align 4
  %59 = sext i32 %58 to i64
  %60 = getelementptr inbounds [101 x i8], [101 x i8]* %6, i64 0, i64 %59
  %61 = load i8, i8* %60, align 1
  %62 = sext i8 %61 to i32
  %63 = icmp eq i32 %62, 41
  br i1 %63, label %64, label %71

64:                                               ; preds = %57
  %65 = load i32, i32* %2, align 4
  %66 = icmp eq i32 %65, 0
  br i1 %66, label %67, label %71

67:                                               ; preds = %64
  %68 = load i32, i32* %5, align 4
  %69 = sext i32 %68 to i64
  %70 = getelementptr inbounds [101 x i8], [101 x i8]* %7, i64 0, i64 %69
  store i8 63, i8* %70, align 1
  br label %71

71:                                               ; preds = %67, %64, %57
  br label %72

72:                                               ; preds = %71, %54
  br label %73

73:                                               ; preds = %72
  %74 = load i32, i32* %5, align 4
  %75 = add nsw i32 %74, 1
  store i32 %75, i32* %5, align 4
  br label %27

76:                                               ; preds = %27
  br label %77

77:                                               ; preds = %119, %76
  %78 = load i32, i32* %5, align 4
  %79 = icmp sge i32 %78, 0
  br i1 %79, label %80, label %122

80:                                               ; preds = %77
  %81 = load i32, i32* %5, align 4
  %82 = sext i32 %81 to i64
  %83 = getelementptr inbounds [101 x i8], [101 x i8]* %6, i64 0, i64 %82
  %84 = load i8, i8* %83, align 1
  %85 = sext i8 %84 to i32
  %86 = icmp eq i32 %85, 41
  br i1 %86, label %87, label %90

87:                                               ; preds = %80
  %88 = load i32, i32* %3, align 4
  %89 = add nsw i32 %88, 1
  store i32 %89, i32* %3, align 4
  br label %90

90:                                               ; preds = %87, %80
  %91 = load i32, i32* %5, align 4
  %92 = sext i32 %91 to i64
  %93 = getelementptr inbounds [101 x i8], [101 x i8]* %6, i64 0, i64 %92
  %94 = load i8, i8* %93, align 1
  %95 = sext i8 %94 to i32
  %96 = icmp eq i32 %95, 40
  br i1 %96, label %97, label %103

97:                                               ; preds = %90
  %98 = load i32, i32* %3, align 4
  %99 = icmp sgt i32 %98, 0
  br i1 %99, label %100, label %103

100:                                              ; preds = %97
  %101 = load i32, i32* %3, align 4
  %102 = add nsw i32 %101, -1
  store i32 %102, i32* %3, align 4
  br label %118

103:                                              ; preds = %97, %90
  %104 = load i32, i32* %5, align 4
  %105 = sext i32 %104 to i64
  %106 = getelementptr inbounds [101 x i8], [101 x i8]* %6, i64 0, i64 %105
  %107 = load i8, i8* %106, align 1
  %108 = sext i8 %107 to i32
  %109 = icmp eq i32 %108, 40
  br i1 %109, label %110, label %117

110:                                              ; preds = %103
  %111 = load i32, i32* %3, align 4
  %112 = icmp eq i32 %111, 0
  br i1 %112, label %113, label %117

113:                                              ; preds = %110
  %114 = load i32, i32* %5, align 4
  %115 = sext i32 %114 to i64
  %116 = getelementptr inbounds [101 x i8], [101 x i8]* %7, i64 0, i64 %115
  store i8 36, i8* %116, align 1
  br label %117

117:                                              ; preds = %113, %110, %103
  br label %118

118:                                              ; preds = %117, %100
  br label %119

119:                                              ; preds = %118
  %120 = load i32, i32* %5, align 4
  %121 = add nsw i32 %120, -1
  store i32 %121, i32* %5, align 4
  br label %77

122:                                              ; preds = %77
  %123 = getelementptr inbounds [101 x i8], [101 x i8]* %6, i64 0, i64 0
  %124 = call i32 @puts(i8* %123)
  %125 = call i32 (i8*, ...) @printf(i8* getelementptr inbounds ([2 x i8], [2 x i8]* @.str.1, i64 0, i64 0))
  store i32 0, i32* %5, align 4
  br label %126

126:                                              ; preds = %160, %122
  %127 = load i32, i32* %5, align 4
  %128 = sext i32 %127 to i64
  %129 = getelementptr inbounds [101 x i8], [101 x i8]* %6, i64 0, i64 %128
  %130 = load i8, i8* %129, align 1
  %131 = sext i8 %130 to i32
  %132 = icmp ne i32 %131, 0
  br i1 %132, label %133, label %163

133:                                              ; preds = %126
  %134 = load i32, i32* %5, align 4
  %135 = sext i32 %134 to i64
  %136 = getelementptr inbounds [101 x i8], [101 x i8]* %7, i64 0, i64 %135
  %137 = load i8, i8* %136, align 1
  %138 = sext i8 %137 to i32
  %139 = icmp eq i32 %138, 63
  br i1 %139, label %147, label %140

140:                                              ; preds = %133
  %141 = load i32, i32* %5, align 4
  %142 = sext i32 %141 to i64
  %143 = getelementptr inbounds [101 x i8], [101 x i8]* %7, i64 0, i64 %142
  %144 = load i8, i8* %143, align 1
  %145 = sext i8 %144 to i32
  %146 = icmp eq i32 %145, 36
  br i1 %146, label %147, label %157

147:                                              ; preds = %140, %133
  %148 = load i32, i32* %5, align 4
  %149 = sext i32 %148 to i64
  %150 = getelementptr inbounds [101 x i8], [101 x i8]* %7, i64 0, i64 %149
  %151 = load i8, i8* %150, align 1
  %152 = sext i8 %151 to i32
  %153 = call i32 (i8*, ...) @printf(i8* getelementptr inbounds ([3 x i8], [3 x i8]* @.str.2, i64 0, i64 0), i32 %152)
  %154 = load i32, i32* %5, align 4
  %155 = sext i32 %154 to i64
  %156 = getelementptr inbounds [101 x i8], [101 x i8]* %7, i64 0, i64 %155
  store i8 0, i8* %156, align 1
  br label %159

157:                                              ; preds = %140
  %158 = call i32 (i8*, ...) @printf(i8* getelementptr inbounds ([2 x i8], [2 x i8]* @.str.3, i64 0, i64 0))
  br label %159

159:                                              ; preds = %157, %147
  br label %160

160:                                              ; preds = %159
  %161 = load i32, i32* %5, align 4
  %162 = add nsw i32 %161, 1
  store i32 %162, i32* %5, align 4
  br label %126

163:                                              ; preds = %126
  %164 = call i32 (i8*, ...) @printf(i8* getelementptr inbounds ([2 x i8], [2 x i8]* @.str.1, i64 0, i64 0))
  %165 = getelementptr inbounds [101 x i8], [101 x i8]* %8, i64 0, i64 0
  %166 = getelementptr inbounds [101 x i8], [101 x i8]* %6, i64 0, i64 0
  %167 = call i8* @strcpy(i8* %165, i8* %166) #5
  br label %168

168:                                              ; preds = %163
  store i32 0, i32* %5, align 4
  store i32 0, i32* %2, align 4
  store i32 0, i32* %3, align 4
  br label %9

169:                                              ; preds = %25, %9
  ret i32 0
}

declare dso_local i32 @__isoc99_scanf(i8*, ...) #1

; Function Attrs: nounwind readonly
declare dso_local i32 @strcmp(i8*, i8*) #2

; Function Attrs: nounwind readonly
declare dso_local i64 @strlen(i8*) #2

declare dso_local i32 @puts(i8*) #1

declare dso_local i32 @printf(i8*, ...) #1

; Function Attrs: nounwind
declare dso_local i8* @strcpy(i8*, i8*) #3


!llvm.module.flags = !{!0}
!llvm.ident = !{!1}

!0 = !{i32 1, !"wchar_size", i32 4}
!1 = !{!"clang version 10.0.0-4ubuntu1 "}
